target datalayout = "e-m:e-p270:32:32-p271:32:32-p272:64:64-i64:64-i128:128-f80:128-n8:16:32:64-S128"
target triple = "x86_64-pc-linux-gnu"

%struct.eio_obj = type { i32, ptr, ptr, i8 }
%struct.io_hdr_t = type { i32, i16, i16, i32 }
%struct.client_io_t = type { i32, i32, i8, i32, i32, i32, ptr, i8, %union.pthread_cond_t, %union.pthread_mutex_t, i32, ptr, ptr, ptr, %union.pthread_mutex_t, ptr, i32, ptr, ptr, ptr, ptr, ptr, ptr, i32, i32, ptr }
%union.pthread_cond_t = type { %struct.__pthread_cond_s }
%struct.__pthread_cond_s = type { %union.__atomic_wide_counter, %union.__atomic_wide_counter, [2 x i32], [2 x i32], i32, i32, [2 x i32] }
%union.__atomic_wide_counter = type { i64 }
%union.pthread_mutex_t = type { %struct.__pthread_mutex_s }
%struct.__pthread_mutex_s = type { i32, i32, i32, i32, i32, i16, i16, %struct.__pthread_internal_list }
%struct.__pthread_internal_list = type { ptr, ptr }
%struct.io_buf = type { i32, i32, ptr, %struct.io_hdr_t }
%struct.file_read_info = type { ptr, %struct.io_hdr_t, i32, i8 }

@.str = private unnamed_addr constant [10 x i8] c"step_io.c\00", align 1
@.str.4 = private unnamed_addr constant [29 x i8] c"%s: pthread_mutex_lock(): %m\00", align 1
@.str.11 = private unnamed_addr constant [31 x i8] c"%s: pthread_mutex_unlock(): %m\00", align 1
@.str.16 = private unnamed_addr constant [18 x i8] c"  false, shutdown\00", align 1
@.str.29 = private unnamed_addr constant [13 x i8] c"  false, eof\00", align 1
@.str.32 = private unnamed_addr constant [8 x i8] c"  false\00", align 1
@.str.63 = private unnamed_addr constant [22 x i8] c"Called _file_readable\00", align 1
@.str.64 = private unnamed_addr constant [43 x i8] c"  false, all ioservers not yet initialized\00", align 1
@__func__._file_readable = private unnamed_addr constant [15 x i8] c"_file_readable\00", align 1
@__func__._alloc_io_buf = private unnamed_addr constant [14 x i8] c"_alloc_io_buf\00", align 1

; Function Attrs: nounwind uwtable
define internal ptr @_alloc_io_buf() #0 {
  %1 = alloca ptr, align 8
  call void @llvm.lifetime.start.p0(i64 8, ptr %1) #9
  %2 = call ptr @slurm_xcalloc(i64 noundef 1, i64 noundef 32, i1 noundef zeroext true, i1 noundef zeroext false, ptr noundef @.str, i32 noundef 967, ptr noundef @__func__._alloc_io_buf)
  store ptr %2, ptr %1, align 8
  %3 = load ptr, ptr %1, align 8
  %4 = getelementptr inbounds nuw %struct.io_buf, ptr %3, i32 0, i32 0
  store i32 0, ptr %4, align 8
  %5 = load ptr, ptr %1, align 8
  %6 = getelementptr inbounds nuw %struct.io_buf, ptr %5, i32 0, i32 1
  store i32 0, ptr %6, align 4
  %7 = call ptr @slurm_xcalloc(i64 noundef 1, i64 noundef 1035, i1 noundef zeroext true, i1 noundef zeroext false, ptr noundef @.str, i32 noundef 973, ptr noundef @__func__._alloc_io_buf)
  %8 = load ptr, ptr %1, align 8
  %9 = getelementptr inbounds nuw %struct.io_buf, ptr %8, i32 0, i32 2
  store ptr %7, ptr %9, align 8
  %10 = load ptr, ptr %1, align 8
  call void @llvm.lifetime.end.p0(i64 8, ptr %1) #9
  ret ptr %10
}

; Function Attrs: nounwind uwtable
define internal zeroext i1 @_incoming_buf_free(ptr noundef %0) #0 {
  %2 = alloca i1, align 1
  %3 = alloca ptr, align 8
  %4 = alloca ptr, align 8
  %5 = alloca i32, align 4
  store ptr %0, ptr %3, align 8
  call void @llvm.lifetime.start.p0(i64 8, ptr %4) #9
  %6 = load ptr, ptr %3, align 8
  %7 = getelementptr inbounds nuw %struct.client_io_t, ptr %6, i32 0, i32 21
  %8 = load ptr, ptr %7, align 8
  %9 = call i32 @list_count(ptr noundef %8)
  %10 = icmp sgt i32 %9, 0
  br i1 %10, label %11, label %12

11:                                               ; preds = %1
  store i1 true, ptr %2, align 1
  store i32 1, ptr %5, align 4
  br label %29

12:                                               ; preds = %1
  %13 = load ptr, ptr %3, align 8
  %14 = getelementptr inbounds nuw %struct.client_io_t, ptr %13, i32 0, i32 23
  %15 = load i32, ptr %14, align 8
  %16 = icmp slt i32 %15, 1024
  br i1 %16, label %17, label %27

17:                                               ; preds = %12
  %18 = call ptr @_alloc_io_buf()
  store ptr %18, ptr %4, align 8
  %19 = load ptr, ptr %3, align 8
  %20 = getelementptr inbounds nuw %struct.client_io_t, ptr %19, i32 0, i32 21
  %21 = load ptr, ptr %20, align 8
  %22 = load ptr, ptr %4, align 8
  call void @list_enqueue(ptr noundef %21, ptr noundef %22)
  %23 = load ptr, ptr %3, align 8
  %24 = getelementptr inbounds nuw %struct.client_io_t, ptr %23, i32 0, i32 23
  %25 = load i32, ptr %24, align 8
  %26 = add nsw i32 %25, 1
  store i32 %26, ptr %24, align 8
  store i1 true, ptr %2, align 1
  store i32 1, ptr %5, align 4
  br label %29

27:                                               ; preds = %12
  br label %28

28:                                               ; preds = %27
  store i1 false, ptr %2, align 1
  store i32 1, ptr %5, align 4
  br label %29

29:                                               ; preds = %28, %17, %11
  call void @llvm.lifetime.end.p0(i64 8, ptr %4) #9
  %30 = load i1, ptr %2, align 1
  ret i1 %30
}

; Function Attrs: nounwind uwtable
define internal zeroext i1 @_file_readable(ptr noundef %0) #0 {
  %2 = alloca i1, align 1
  %3 = alloca ptr, align 8
  %4 = alloca ptr, align 8
  %5 = alloca i32, align 4
  %6 = alloca i32, align 4
  %7 = alloca i32, align 4
  %8 = alloca i32, align 4
  store ptr %0, ptr %3, align 8
  call void @llvm.lifetime.start.p0(i64 8, ptr %4) #9
  %9 = load ptr, ptr %3, align 8
  %10 = getelementptr inbounds nuw %struct.eio_obj, ptr %9, i32 0, i32 1
  %11 = load ptr, ptr %10, align 8
  store ptr %11, ptr %4, align 8
  br label %12

12:                                               ; preds = %1
  br label %13

13:                                               ; preds = %12
  %14 = call i32 @get_log_level()
  %15 = icmp sge i32 %14, 6
  br i1 %15, label %16, label %17

16:                                               ; preds = %13
  call void (i32, ptr, ...) @log_var(i32 noundef 6, ptr noundef @.str.63)
  br label %17

17:                                               ; preds = %16, %13
  br label %18

18:                                               ; preds = %17
  br label %19

19:                                               ; preds = %18
  br label %20

20:                                               ; preds = %19
  br label %21

21:                                               ; preds = %20
  %22 = load ptr, ptr %4, align 8
  %23 = getelementptr inbounds nuw %struct.file_read_info, ptr %22, i32 0, i32 0
  %24 = load ptr, ptr %23, align 8
  %25 = getelementptr inbounds nuw %struct.client_io_t, ptr %24, i32 0, i32 16
  %26 = load i32, ptr %25, align 8
  %27 = load ptr, ptr %4, align 8
  %28 = getelementptr inbounds nuw %struct.file_read_info, ptr %27, i32 0, i32 0
  %29 = load ptr, ptr %28, align 8
  %30 = getelementptr inbounds nuw %struct.client_io_t, ptr %29, i32 0, i32 1
  %31 = load i32, ptr %30, align 4
  %32 = icmp slt i32 %26, %31
  br i1 %32, label %33, label %44

33:                                               ; preds = %21
  br label %34

34:                                               ; preds = %33
  br label %35

35:                                               ; preds = %34
  %36 = call i32 @get_log_level()
  %37 = icmp sge i32 %36, 7
  br i1 %37, label %38, label %39

38:                                               ; preds = %35
  call void (i32, ptr, ...) @log_var(i32 noundef 7, ptr noundef @.str.64)
  br label %39

39:                                               ; preds = %38, %35
  br label %40

40:                                               ; preds = %39
  br label %41

41:                                               ; preds = %40
  br label %42

42:                                               ; preds = %41
  br label %43

43:                                               ; preds = %42
  store i1 false, ptr %2, align 1
  store i32 1, ptr %5, align 4
  br label %151

44:                                               ; preds = %21
  %45 = load ptr, ptr %4, align 8
  %46 = getelementptr inbounds nuw %struct.file_read_info, ptr %45, i32 0, i32 3
  %47 = load i8, ptr %46, align 8, !range !8, !noundef !9
  %48 = trunc i8 %47 to i1
  br i1 %48, label %49, label %60

49:                                               ; preds = %44
  br label %50

50:                                               ; preds = %49
  br label %51

51:                                               ; preds = %50
  %52 = call i32 @get_log_level()
  %53 = icmp sge i32 %52, 7
  br i1 %53, label %54, label %55

54:                                               ; preds = %51
  call void (i32, ptr, ...) @log_var(i32 noundef 7, ptr noundef @.str.29)
  br label %55

55:                                               ; preds = %54, %51
  br label %56

56:                                               ; preds = %55
  br label %57

57:                                               ; preds = %56
  br label %58

58:                                               ; preds = %57
  br label %59

59:                                               ; preds = %58
  store i1 false, ptr %2, align 1
  store i32 1, ptr %5, align 4
  br label %151

60:                                               ; preds = %44
  %61 = load ptr, ptr %3, align 8
  %62 = getelementptr inbounds nuw %struct.eio_obj, ptr %61, i32 0, i32 3
  %63 = load i8, ptr %62, align 8, !range !8, !noundef !9
  %64 = trunc i8 %63 to i1
  %65 = zext i1 %64 to i32
  %66 = icmp eq i32 %65, 1
  br i1 %66, label %67, label %92

67:                                               ; preds = %60
  br label %68

68:                                               ; preds = %67
  br label %69

69:                                               ; preds = %68
  %70 = call i32 @get_log_level()
  %71 = icmp sge i32 %70, 7
  br i1 %71, label %72, label %73

72:                                               ; preds = %69
  call void (i32, ptr, ...) @log_var(i32 noundef 7, ptr noundef @.str.16)
  br label %73

73:                                               ; preds = %72, %69
  br label %74

74:                                               ; preds = %73
  br label %75

75:                                               ; preds = %74
  br label %76

76:                                               ; preds = %75
  br label %77

77:                                               ; preds = %76
  %78 = load ptr, ptr %3, align 8
  %79 = getelementptr inbounds nuw %struct.eio_obj, ptr %78, i32 0, i32 0
  %80 = load i32, ptr %79, align 8
  %81 = icmp sgt i32 %80, 2
  br i1 %81, label %82, label %87

82:                                               ; preds = %77
  %83 = load ptr, ptr %3, align 8
  %84 = getelementptr inbounds nuw %struct.eio_obj, ptr %83, i32 0, i32 0
  %85 = load i32, ptr %84, align 8
  %86 = call i32 @close(i32 noundef %85)
  br label %87

87:                                               ; preds = %82, %77
  %88 = load ptr, ptr %3, align 8
  %89 = getelementptr inbounds nuw %struct.eio_obj, ptr %88, i32 0, i32 0
  store i32 -1, ptr %89, align 8
  %90 = load ptr, ptr %4, align 8
  %91 = getelementptr inbounds nuw %struct.file_read_info, ptr %90, i32 0, i32 3
  store i8 1, ptr %91, align 8
  store i1 false, ptr %2, align 1
  store i32 1, ptr %5, align 4
  br label %151

92:                                               ; preds = %60
  br label %93

93:                                               ; preds = %92
  call void @llvm.lifetime.start.p0(i64 4, ptr %6) #9
  %94 = load ptr, ptr %4, align 8
  %95 = getelementptr inbounds nuw %struct.file_read_info, ptr %94, i32 0, i32 0
  %96 = load ptr, ptr %95, align 8
  %97 = getelementptr inbounds nuw %struct.client_io_t, ptr %96, i32 0, i32 14
  %98 = call i32 @pthread_mutex_lock(ptr noundef %97) #9
  store i32 %98, ptr %6, align 4
  %99 = load i32, ptr %6, align 4
  %100 = icmp ne i32 %99, 0
  br i1 %100, label %101, label %104

101:                                              ; preds = %93
  %102 = load i32, ptr %6, align 4
  %103 = call ptr @__errno_location() #10
  store i32 %102, ptr %103, align 4
  call void (ptr, ...) @fatal_abort(ptr noundef @.str.4, ptr noundef @__func__._file_readable) #11
  unreachable

104:                                              ; preds = %93
  call void @llvm.lifetime.end.p0(i64 4, ptr %6) #9
  br label %105

105:                                              ; preds = %104
  br label %106

106:                                              ; preds = %105
  %107 = load ptr, ptr %4, align 8
  %108 = getelementptr inbounds nuw %struct.file_read_info, ptr %107, i32 0, i32 0
  %109 = load ptr, ptr %108, align 8
  %110 = call zeroext i1 @_incoming_buf_free(ptr noundef %109)
  br i1 %110, label %111, label %126

111:                                              ; preds = %106
  br label %112

112:                                              ; preds = %111
  call void @llvm.lifetime.start.p0(i64 4, ptr %7) #9
  %113 = load ptr, ptr %4, align 8
  %114 = getelementptr inbounds nuw %struct.file_read_info, ptr %113, i32 0, i32 0
  %115 = load ptr, ptr %114, align 8
  %116 = getelementptr inbounds nuw %struct.client_io_t, ptr %115, i32 0, i32 14
  %117 = call i32 @pthread_mutex_unlock(ptr noundef %116) #9
  store i32 %117, ptr %7, align 4
  %118 = load i32, ptr %7, align 4
  %119 = icmp ne i32 %118, 0
  br i1 %119, label %120, label %123

120:                                              ; preds = %112
  %121 = load i32, ptr %7, align 4
  %122 = call ptr @__errno_location() #10
  store i32 %121, ptr %122, align 4
  call void (ptr, ...) @fatal_abort(ptr noundef @.str.11, ptr noundef @__func__._file_readable) #11
  unreachable

123:                                              ; preds = %112
  call void @llvm.lifetime.end.p0(i64 4, ptr %7) #9
  br label %124

124:                                              ; preds = %123
  br label %125

125:                                              ; preds = %124
  store i1 true, ptr %2, align 1
  store i32 1, ptr %5, align 4
  br label %151

126:                                              ; preds = %106
  br label %127

127:                                              ; preds = %126
  call void @llvm.lifetime.start.p0(i64 4, ptr %8) #9
  %128 = load ptr, ptr %4, align 8
  %129 = getelementptr inbounds nuw %struct.file_read_info, ptr %128, i32 0, i32 0
  %130 = load ptr, ptr %129, align 8
  %131 = getelementptr inbounds nuw %struct.client_io_t, ptr %130, i32 0, i32 14
  %132 = call i32 @pthread_mutex_unlock(ptr noundef %131) #9
  store i32 %132, ptr %8, align 4
  %133 = load i32, ptr %8, align 4
  %134 = icmp ne i32 %133, 0
  br i1 %134, label %135, label %138

135:                                              ; preds = %127
  %136 = load i32, ptr %8, align 4
  %137 = call ptr @__errno_location() #10
  store i32 %136, ptr %137, align 4
  call void (ptr, ...) @fatal_abort(ptr noundef @.str.11, ptr noundef @__func__._file_readable) #11
  unreachable

138:                                              ; preds = %127
  call void @llvm.lifetime.end.p0(i64 4, ptr %8) #9
  br label %139

139:                                              ; preds = %138
  br label %140

140:                                              ; preds = %139
  br label %141

141:                                              ; preds = %140
  br label %142

142:                                              ; preds = %141
  %143 = call i32 @get_log_level()
  %144 = icmp sge i32 %143, 7
  br i1 %144, label %145, label %146

145:                                              ; preds = %142
  call void (i32, ptr, ...) @log_var(i32 noundef 7, ptr noundef @.str.32)
  br label %146

146:                                              ; preds = %145, %142
  br label %147

147:                                              ; preds = %146
  br label %148

148:                                              ; preds = %147
  br label %149

149:                                              ; preds = %148
  br label %150

150:                                              ; preds = %149
  store i1 false, ptr %2, align 1
  store i32 1, ptr %5, align 4
  br label %151

151:                                              ; preds = %150, %125, %87, %59, %43
  call void @llvm.lifetime.end.p0(i64 8, ptr %4) #9
  %152 = load i1, ptr %2, align 1
  ret i1 %152
}