; Function Attrs: nounwind uwtable
define internal noundef zeroext i1 @_file_readable(ptr noundef captures(none) %0) #0 {
  %2 = getelementptr inbounds nuw i8, ptr %0, i64 8
  %3 = load ptr, ptr %2, align 8
  %4 = tail call i32 @get_log_level() #10
  %5 = icmp sgt i32 %4, 5
  br i1 %5, label %6, label %7

6:                                                ; preds = %1
  tail call void (i32, ptr, ...) @log_var(i32 noundef 6, ptr noundef nonnull @.str.63) #10
  br label %7

7:                                                ; preds = %6, %1
  %8 = load ptr, ptr %3, align 8
  %9 = getelementptr inbounds nuw i8, ptr %8, i64 208
  %10 = load i32, ptr %9, align 8
  %11 = getelementptr inbounds nuw i8, ptr %8, i64 4
  %12 = load i32, ptr %11, align 4
  %13 = icmp slt i32 %10, %12
  br i1 %13, label %14, label %18

14:                                               ; preds = %7
  %15 = tail call i32 @get_log_level() #10
  %16 = icmp sgt i32 %15, 6
  br i1 %16, label %17, label %78

17:                                               ; preds = %14
  tail call void (i32, ptr, ...) @log_var(i32 noundef 7, ptr noundef nonnull @.str.64) #10
  br label %78

18:                                               ; preds = %7
  %19 = getelementptr inbounds nuw i8, ptr %3, i64 24
  %20 = load i8, ptr %19, align 8, !range !8, !noundef !9
  %21 = trunc nuw i8 %20 to i1
  br i1 %21, label %22, label %26

22:                                               ; preds = %18
  %23 = tail call i32 @get_log_level() #10
  %24 = icmp sgt i32 %23, 6
  br i1 %24, label %25, label %78

25:                                               ; preds = %22
  tail call void (i32, ptr, ...) @log_var(i32 noundef 7, ptr noundef nonnull @.str.29) #10
  br label %78

26:                                               ; preds = %18
  %27 = getelementptr inbounds nuw i8, ptr %0, i64 24
  %28 = load i8, ptr %27, align 8, !range !8, !noundef !9
  %29 = trunc nuw i8 %28 to i1
  br i1 %29, label %30, label %40

30:                                               ; preds = %26
  %31 = tail call i32 @get_log_level() #10
  %32 = icmp sgt i32 %31, 6
  br i1 %32, label %33, label %34

33:                                               ; preds = %30
  tail call void (i32, ptr, ...) @log_var(i32 noundef 7, ptr noundef nonnull @.str.16) #10
  br label %34

34:                                               ; preds = %33, %30
  %35 = load i32, ptr %0, align 8
  %36 = icmp sgt i32 %35, 2
  br i1 %36, label %37, label %39

37:                                               ; preds = %34
  %38 = tail call i32 @close(i32 noundef %35) #10
  br label %39

39:                                               ; preds = %37, %34
  store i32 -1, ptr %0, align 8
  store i8 1, ptr %19, align 8
  br label %78

40:                                               ; preds = %26
  %41 = getelementptr inbounds nuw i8, ptr %8, i64 160
  %42 = tail call i32 @pthread_mutex_lock(ptr noundef nonnull %41) #10
  %.not = icmp eq i32 %42, 0
  br i1 %.not, label %45, label %43

43:                                               ; preds = %40
  %44 = tail call ptr @__errno_location() #11
  store i32 %42, ptr %44, align 4
  tail call void (ptr, ...) @fatal_abort(ptr noundef nonnull @.str.4, ptr noundef nonnull @__func__._file_readable) #12
  unreachable

45:                                               ; preds = %40
  %46 = load ptr, ptr %3, align 8
  %47 = getelementptr inbounds nuw i8, ptr %46, i64 248
  %48 = load ptr, ptr %47, align 8
  %49 = tail call i32 @list_count(ptr noundef %48) #10
  %50 = icmp sgt i32 %49, 0
  br i1 %50, label %63, label %51

51:                                               ; preds = %45
  %52 = getelementptr inbounds nuw i8, ptr %46, i64 264
  %53 = load i32, ptr %52, align 8
  %54 = icmp slt i32 %53, 1024
  br i1 %54, label %55, label %_incoming_buf_free.exit

55:                                               ; preds = %51
  %56 = tail call ptr @slurm_xcalloc(i64 noundef 1, i64 noundef 32, i1 noundef zeroext true, i1 noundef zeroext false, ptr noundef nonnull @.str, i32 noundef 967, ptr noundef nonnull @__func__._alloc_io_buf) #10
  store i32 0, ptr %56, align 8
  %57 = getelementptr inbounds nuw i8, ptr %56, i64 4
  store i32 0, ptr %57, align 4
  %58 = tail call ptr @slurm_xcalloc(i64 noundef 1, i64 noundef 1035, i1 noundef zeroext true, i1 noundef zeroext false, ptr noundef nonnull @.str, i32 noundef 973, ptr noundef nonnull @__func__._alloc_io_buf) #10
  %59 = getelementptr inbounds nuw i8, ptr %56, i64 8
  store ptr %58, ptr %59, align 8
  %60 = load ptr, ptr %47, align 8
  tail call void @list_enqueue(ptr noundef %60, ptr noundef nonnull %56) #10
  %61 = load i32, ptr %52, align 8
  %62 = add nsw i32 %61, 1
  store i32 %62, ptr %52, align 8
  br label %63

63:                                               ; preds = %55, %45
  %64 = load ptr, ptr %3, align 8
  %65 = getelementptr inbounds nuw i8, ptr %64, i64 160
  %66 = tail call i32 @pthread_mutex_unlock(ptr noundef nonnull %65) #10
  %.not24 = icmp eq i32 %66, 0
  br i1 %.not24, label %78, label %67

67:                                               ; preds = %63
  %68 = tail call ptr @__errno_location() #11
  store i32 %66, ptr %68, align 4
  tail call void (ptr, ...) @fatal_abort(ptr noundef nonnull @.str.11, ptr noundef nonnull @__func__._file_readable) #12
  unreachable

_incoming_buf_free.exit:                          ; preds = %51
  %69 = load ptr, ptr %3, align 8
  %70 = getelementptr inbounds nuw i8, ptr %69, i64 160
  %71 = tail call i32 @pthread_mutex_unlock(ptr noundef nonnull %70) #10
  %.not23 = icmp eq i32 %71, 0
  br i1 %.not23, label %74, label %72

72:                                               ; preds = %_incoming_buf_free.exit
  %73 = tail call ptr @__errno_location() #11
  store i32 %71, ptr %73, align 4
  tail call void (ptr, ...) @fatal_abort(ptr noundef nonnull @.str.11, ptr noundef nonnull @__func__._file_readable) #12
  unreachable

74:                                               ; preds = %_incoming_buf_free.exit
  %75 = tail call i32 @get_log_level() #10
  %76 = icmp sgt i32 %75, 6
  br i1 %76, label %77, label %78

77:                                               ; preds = %74
  tail call void (i32, ptr, ...) @log_var(i32 noundef 7, ptr noundef nonnull @.str.32) #10
  br label %78

78:                                               ; preds = %74, %77, %63, %22, %25, %14, %17, %39
  %.0 = phi i1 [ false, %39 ], [ false, %17 ], [ false, %14 ], [ false, %25 ], [ false, %22 ], [ true, %63 ], [ false, %77 ], [ false, %74 ]
  ret i1 %.0
}